; Function Attrs: mustprogress uwtable
define void @_ZN7openvdb5v11_02io8TempFileC1Ev(ptr noundef nonnull align 8 dereferenceable(16) %this) unnamed_addr #3 align 2 personality ptr @__gxx_personality_v0 {
entry:
  %0 = getelementptr inbounds i8, ptr %this, i64 16
  tail call void @_ZNSt9basic_iosIcSt11char_traitsIcEEC2Ev(ptr noundef nonnull align 8 dereferenceable(264) %0)
  invoke void @_ZNSoC2EPSt15basic_streambufIcSt11char_traitsIcEE(ptr noundef nonnull align 8 dereferenceable(8) %this, ptr noundef nonnull getelementptr inbounds ([4 x ptr], ptr @_ZTTN7openvdb5v11_02io8TempFileE, i64 0, i64 1), ptr noundef null)
          to label %invoke.cont unwind label %lpad

invoke.cont:                                      ; preds = %entry
  store ptr getelementptr inbounds ({ [5 x ptr], [5 x ptr] }, ptr @_ZTVN7openvdb5v11_02io8TempFileE, i64 0, i32 0, i64 3), ptr %this, align 8
  store ptr getelementptr inbounds ({ [5 x ptr], [5 x ptr] }, ptr @_ZTVN7openvdb5v11_02io8TempFileE, i64 0, i32 1, i64 3), ptr %0, align 8
  %call = invoke noalias noundef nonnull dereferenceable(192) ptr @_Znwm(i64 noundef 192) #23
          to label %invoke.cont3 unwind label %lpad2

invoke.cont3:                                     ; preds = %invoke.cont
  invoke void @_ZN7openvdb5v11_02io8TempFile12TempFileImplC2ERSo(ptr noundef nonnull align 8 dereferenceable(188) %call, ptr noundef nonnull align 8 dereferenceable(8) %this)
          to label %invoke.cont5 unwind label %lpad4

invoke.cont5:                                     ; preds = %invoke.cont3
  %mImpl = getelementptr inbounds i8, ptr %this, i64 8
  store ptr %call, ptr %mImpl, align 8
  ret void

lpad:                                             ; preds = %entry
  %1 = landingpad { ptr, i32 }
          cleanup
  br label %ehcleanup6

lpad2:                                            ; preds = %invoke.cont
  %2 = landingpad { ptr, i32 }
          cleanup
  br label %ehcleanup

lpad4:                                            ; preds = %invoke.cont3
  %3 = landingpad { ptr, i32 }
          cleanup
  tail call void @_ZdlPv(ptr noundef nonnull %call) #24
  br label %ehcleanup

ehcleanup:                                        ; preds = %lpad4, %lpad2
  %.pn = phi { ptr, i32 } [ %3, %lpad4 ], [ %2, %lpad2 ]
  tail call void @_ZNSoD2Ev(ptr noundef nonnull align 8 dereferenceable(8) %this, ptr noundef nonnull getelementptr inbounds ([4 x ptr], ptr @_ZTTN7openvdb5v11_02io8TempFileE, i64 0, i64 1)) #25
  br label %ehcleanup6

ehcleanup6:                                       ; preds = %ehcleanup, %lpad
  %.pn.pn = phi { ptr, i32 } [ %.pn, %ehcleanup ], [ %1, %lpad ]
  tail call void @_ZNSt9basic_iosIcSt11char_traitsIcEED2Ev(ptr noundef nonnull align 8 dereferenceable(264) %0) #25
  resume { ptr, i32 } %.pn.pn
}